target datalayout = "e-m:e-p270:32:32-p271:32:32-p272:64:64-i64:64-i128:128-f80:128-n8:16:32:64-S128"
target triple = "x86_64-pc-linux-gnu"

@hf_cigi3_articulated_part_control_entity_id = internal global i32 0, align 4
@hf_cigi3_articulated_part_control_part_id = internal global i32 0, align 4
@hf_cigi3_articulated_part_control_part_enable = internal global i32 0, align 4
@hf_cigi3_articulated_part_control_xoff_enable = internal global i32 0, align 4
@hf_cigi3_articulated_part_control_yoff_enable = internal global i32 0, align 4
@hf_cigi3_articulated_part_control_zoff_enable = internal global i32 0, align 4
@hf_cigi3_articulated_part_control_roll_enable = internal global i32 0, align 4
@hf_cigi3_articulated_part_control_pitch_enable = internal global i32 0, align 4
@hf_cigi3_articulated_part_control_yaw_enable = internal global i32 0, align 4
@hf_cigi3_articulated_part_control_xoff = internal global i32 0, align 4
@hf_cigi3_articulated_part_control_yoff = internal global i32 0, align 4
@hf_cigi3_articulated_part_control_zoff = internal global i32 0, align 4
@hf_cigi3_articulated_part_control_roll = internal global i32 0, align 4
@hf_cigi3_articulated_part_control_pitch = internal global i32 0, align 4
@hf_cigi3_articulated_part_control_yaw = internal global i32 0, align 4
@ett_cigi4_articulated_part_control_part_enable_flags = internal global i32 0, align 4
@cigi_byte_order = internal global i32 0, align 4
@hf_cigi4_articulated_part_control_part_enable_flags = internal global i32 0, align 4

; Function Attrs: null_pointer_is_valid sspstrong uwtable
define internal i32 @cigi4_add_articulated_part_control(ptr noundef %0, ptr noundef %1, ptr noundef %2, ptr noundef %3) #0 {
  %5 = alloca ptr, align 8
  %6 = alloca ptr, align 8
  %7 = alloca ptr, align 8
  %8 = alloca ptr, align 8
  %9 = alloca i32, align 4
  %10 = alloca ptr, align 8
  %11 = alloca ptr, align 8
  store ptr %0, ptr %5, align 8
  store ptr %1, ptr %6, align 8
  store ptr %2, ptr %7, align 8
  store ptr %3, ptr %8, align 8
  call void @llvm.lifetime.start.p0(i64 4, ptr %9) #5
  store i32 0, ptr %9, align 4
  call void @llvm.lifetime.start.p0(i64 8, ptr %10) #5
  call void @llvm.lifetime.start.p0(i64 8, ptr %11) #5
  %12 = load ptr, ptr %7, align 8
  %13 = load i32, ptr @hf_cigi3_articulated_part_control_entity_id, align 4
  %14 = load ptr, ptr %5, align 8
  %15 = load i32, ptr %9, align 4
  %16 = load i32, ptr @cigi_byte_order, align 4
  %17 = call ptr @proto_tree_add_item(ptr noundef %12, i32 noundef %13, ptr noundef %14, i32 noundef %15, i32 noundef 2, i32 noundef %16)
  %18 = load i32, ptr %9, align 4
  %19 = add i32 %18, 2
  store i32 %19, ptr %9, align 4
  %20 = load ptr, ptr %7, align 8
  %21 = load i32, ptr @hf_cigi3_articulated_part_control_part_id, align 4
  %22 = load ptr, ptr %5, align 8
  %23 = load i32, ptr %9, align 4
  %24 = load i32, ptr @cigi_byte_order, align 4
  %25 = call ptr @proto_tree_add_item(ptr noundef %20, i32 noundef %21, ptr noundef %22, i32 noundef %23, i32 noundef 1, i32 noundef %24)
  %26 = load i32, ptr %9, align 4
  %27 = add i32 %26, 1
  store i32 %27, ptr %9, align 4
  %28 = load ptr, ptr %7, align 8
  %29 = load i32, ptr @hf_cigi4_articulated_part_control_part_enable_flags, align 4
  %30 = load ptr, ptr %5, align 8
  %31 = load i32, ptr %9, align 4
  %32 = load i32, ptr @cigi_byte_order, align 4
  %33 = call ptr @proto_tree_add_item(ptr noundef %28, i32 noundef %29, ptr noundef %30, i32 noundef %31, i32 noundef 1, i32 noundef %32)
  store ptr %33, ptr %11, align 8
  %34 = load ptr, ptr %11, align 8
  %35 = load i32, ptr @ett_cigi4_articulated_part_control_part_enable_flags, align 4
  %36 = call ptr @proto_item_add_subtree(ptr noundef %34, i32 noundef %35)
  store ptr %36, ptr %10, align 8
  %37 = load ptr, ptr %10, align 8
  %38 = load i32, ptr @hf_cigi3_articulated_part_control_part_enable, align 4
  %39 = load ptr, ptr %5, align 8
  %40 = load i32, ptr %9, align 4
  %41 = load i32, ptr @cigi_byte_order, align 4
  %42 = call ptr @proto_tree_add_item(ptr noundef %37, i32 noundef %38, ptr noundef %39, i32 noundef %40, i32 noundef 1, i32 noundef %41)
  %43 = load ptr, ptr %10, align 8
  %44 = load i32, ptr @hf_cigi3_articulated_part_control_xoff_enable, align 4
  %45 = load ptr, ptr %5, align 8
  %46 = load i32, ptr %9, align 4
  %47 = load i32, ptr @cigi_byte_order, align 4
  %48 = call ptr @proto_tree_add_item(ptr noundef %43, i32 noundef %44, ptr noundef %45, i32 noundef %46, i32 noundef 1, i32 noundef %47)
  %49 = load ptr, ptr %10, align 8
  %50 = load i32, ptr @hf_cigi3_articulated_part_control_yoff_enable, align 4
  %51 = load ptr, ptr %5, align 8
  %52 = load i32, ptr %9, align 4
  %53 = load i32, ptr @cigi_byte_order, align 4
  %54 = call ptr @proto_tree_add_item(ptr noundef %49, i32 noundef %50, ptr noundef %51, i32 noundef %52, i32 noundef 1, i32 noundef %53)
  %55 = load ptr, ptr %10, align 8
  %56 = load i32, ptr @hf_cigi3_articulated_part_control_zoff_enable, align 4
  %57 = load ptr, ptr %5, align 8
  %58 = load i32, ptr %9, align 4
  %59 = load i32, ptr @cigi_byte_order, align 4
  %60 = call ptr @proto_tree_add_item(ptr noundef %55, i32 noundef %56, ptr noundef %57, i32 noundef %58, i32 noundef 1, i32 noundef %59)
  %61 = load ptr, ptr %10, align 8
  %62 = load i32, ptr @hf_cigi3_articulated_part_control_roll_enable, align 4
  %63 = load ptr, ptr %5, align 8
  %64 = load i32, ptr %9, align 4
  %65 = load i32, ptr @cigi_byte_order, align 4
  %66 = call ptr @proto_tree_add_item(ptr noundef %61, i32 noundef %62, ptr noundef %63, i32 noundef %64, i32 noundef 1, i32 noundef %65)
  %67 = load ptr, ptr %10, align 8
  %68 = load i32, ptr @hf_cigi3_articulated_part_control_pitch_enable, align 4
  %69 = load ptr, ptr %5, align 8
  %70 = load i32, ptr %9, align 4
  %71 = load i32, ptr @cigi_byte_order, align 4
  %72 = call ptr @proto_tree_add_item(ptr noundef %67, i32 noundef %68, ptr noundef %69, i32 noundef %70, i32 noundef 1, i32 noundef %71)
  %73 = load ptr, ptr %10, align 8
  %74 = load i32, ptr @hf_cigi3_articulated_part_control_yaw_enable, align 4
  %75 = load ptr, ptr %5, align 8
  %76 = load i32, ptr %9, align 4
  %77 = load i32, ptr @cigi_byte_order, align 4
  %78 = call ptr @proto_tree_add_item(ptr noundef %73, i32 noundef %74, ptr noundef %75, i32 noundef %76, i32 noundef 1, i32 noundef %77)
  %79 = load i32, ptr %9, align 4
  %80 = add i32 %79, 1
  store i32 %80, ptr %9, align 4
  %81 = load ptr, ptr %7, align 8
  %82 = load i32, ptr @hf_cigi3_articulated_part_control_xoff, align 4
  %83 = load ptr, ptr %5, align 8
  %84 = load i32, ptr %9, align 4
  %85 = load i32, ptr @cigi_byte_order, align 4
  %86 = call ptr @proto_tree_add_item(ptr noundef %81, i32 noundef %82, ptr noundef %83, i32 noundef %84, i32 noundef 4, i32 noundef %85)
  %87 = load i32, ptr %9, align 4
  %88 = add i32 %87, 4
  store i32 %88, ptr %9, align 4
  %89 = load ptr, ptr %7, align 8
  %90 = load i32, ptr @hf_cigi3_articulated_part_control_yoff, align 4
  %91 = load ptr, ptr %5, align 8
  %92 = load i32, ptr %9, align 4
  %93 = load i32, ptr @cigi_byte_order, align 4
  %94 = call ptr @proto_tree_add_item(ptr noundef %89, i32 noundef %90, ptr noundef %91, i32 noundef %92, i32 noundef 4, i32 noundef %93)
  %95 = load i32, ptr %9, align 4
  %96 = add i32 %95, 4
  store i32 %96, ptr %9, align 4
  %97 = load ptr, ptr %7, align 8
  %98 = load i32, ptr @hf_cigi3_articulated_part_control_zoff, align 4
  %99 = load ptr, ptr %5, align 8
  %100 = load i32, ptr %9, align 4
  %101 = load i32, ptr @cigi_byte_order, align 4
  %102 = call ptr @proto_tree_add_item(ptr noundef %97, i32 noundef %98, ptr noundef %99, i32 noundef %100, i32 noundef 4, i32 noundef %101)
  %103 = load i32, ptr %9, align 4
  %104 = add i32 %103, 4
  store i32 %104, ptr %9, align 4
  %105 = load ptr, ptr %7, align 8
  %106 = load i32, ptr @hf_cigi3_articulated_part_control_roll, align 4
  %107 = load ptr, ptr %5, align 8
  %108 = load i32, ptr %9, align 4
  %109 = load i32, ptr @cigi_byte_order, align 4
  %110 = call ptr @proto_tree_add_item(ptr noundef %105, i32 noundef %106, ptr noundef %107, i32 noundef %108, i32 noundef 4, i32 noundef %109)
  %111 = load i32, ptr %9, align 4
  %112 = add i32 %111, 4
  store i32 %112, ptr %9, align 4
  %113 = load ptr, ptr %7, align 8
  %114 = load i32, ptr @hf_cigi3_articulated_part_control_pitch, align 4
  %115 = load ptr, ptr %5, align 8
  %116 = load i32, ptr %9, align 4
  %117 = load i32, ptr @cigi_byte_order, align 4
  %118 = call ptr @proto_tree_add_item(ptr noundef %113, i32 noundef %114, ptr noundef %115, i32 noundef %116, i32 noundef 4, i32 noundef %117)
  %119 = load i32, ptr %9, align 4
  %120 = add i32 %119, 4
  store i32 %120, ptr %9, align 4
  %121 = load ptr, ptr %7, align 8
  %122 = load i32, ptr @hf_cigi3_articulated_part_control_yaw, align 4
  %123 = load ptr, ptr %5, align 8
  %124 = load i32, ptr %9, align 4
  %125 = load i32, ptr @cigi_byte_order, align 4
  %126 = call ptr @proto_tree_add_item(ptr noundef %121, i32 noundef %122, ptr noundef %123, i32 noundef %124, i32 noundef 4, i32 noundef %125)
  %127 = load i32, ptr %9, align 4
  %128 = add i32 %127, 4
  store i32 %128, ptr %9, align 4
  %129 = load i32, ptr %9, align 4
  call void @llvm.lifetime.end.p0(i64 8, ptr %11) #5
  call void @llvm.lifetime.end.p0(i64 8, ptr %10) #5
  call void @llvm.lifetime.end.p0(i64 4, ptr %9) #5
  ret i32 %129
}