; Function Attrs: null_pointer_is_valid sspstrong uwtable
define internal noundef i32 @cigi4_add_articulated_part_control(ptr noundef %0, ptr readnone captures(none) %1, ptr noundef %2, ptr readnone captures(none) %3) #0 {
  %5 = load i32, ptr @hf_cigi3_articulated_part_control_entity_id, align 4
  %.b72 = load i1, ptr @cigi_byte_order, align 4
  %6 = select i1 %.b72, i32 -2147483648, i32 0
  %7 = tail call ptr @proto_tree_add_item(ptr noundef %2, i32 noundef %5, ptr noundef %0, i32 noundef 0, i32 noundef 2, i32 noundef %6)
  %8 = load i32, ptr @hf_cigi3_articulated_part_control_part_id, align 4
  %.b71 = load i1, ptr @cigi_byte_order, align 4
  %9 = select i1 %.b71, i32 -2147483648, i32 0
  %10 = tail call ptr @proto_tree_add_item(ptr noundef %2, i32 noundef %8, ptr noundef %0, i32 noundef 2, i32 noundef 1, i32 noundef %9)
  %.b70 = load i1, ptr @cigi_byte_order, align 4
  %11 = select i1 %.b70, i32 -2147483648, i32 0
  %12 = tail call ptr @proto_tree_add_item(ptr noundef %2, i32 noundef 0, ptr noundef %0, i32 noundef 3, i32 noundef 1, i32 noundef %11)
  %13 = load i32, ptr @ett_cigi4_articulated_part_control_part_enable_flags, align 4
  %14 = tail call ptr @proto_item_add_subtree(ptr noundef %12, i32 noundef %13)
  %15 = load i32, ptr @hf_cigi3_articulated_part_control_part_enable, align 4
  %.b69 = load i1, ptr @cigi_byte_order, align 4
  %16 = select i1 %.b69, i32 -2147483648, i32 0
  %17 = tail call ptr @proto_tree_add_item(ptr noundef %14, i32 noundef %15, ptr noundef %0, i32 noundef 3, i32 noundef 1, i32 noundef %16)
  %18 = load i32, ptr @hf_cigi3_articulated_part_control_xoff_enable, align 4
  %.b68 = load i1, ptr @cigi_byte_order, align 4
  %19 = select i1 %.b68, i32 -2147483648, i32 0
  %20 = tail call ptr @proto_tree_add_item(ptr noundef %14, i32 noundef %18, ptr noundef %0, i32 noundef 3, i32 noundef 1, i32 noundef %19)
  %21 = load i32, ptr @hf_cigi3_articulated_part_control_yoff_enable, align 4
  %.b67 = load i1, ptr @cigi_byte_order, align 4
  %22 = select i1 %.b67, i32 -2147483648, i32 0
  %23 = tail call ptr @proto_tree_add_item(ptr noundef %14, i32 noundef %21, ptr noundef %0, i32 noundef 3, i32 noundef 1, i32 noundef %22)
  %24 = load i32, ptr @hf_cigi3_articulated_part_control_zoff_enable, align 4
  %.b66 = load i1, ptr @cigi_byte_order, align 4
  %25 = select i1 %.b66, i32 -2147483648, i32 0
  %26 = tail call ptr @proto_tree_add_item(ptr noundef %14, i32 noundef %24, ptr noundef %0, i32 noundef 3, i32 noundef 1, i32 noundef %25)
  %27 = load i32, ptr @hf_cigi3_articulated_part_control_roll_enable, align 4
  %.b65 = load i1, ptr @cigi_byte_order, align 4
  %28 = select i1 %.b65, i32 -2147483648, i32 0
  %29 = tail call ptr @proto_tree_add_item(ptr noundef %14, i32 noundef %27, ptr noundef %0, i32 noundef 3, i32 noundef 1, i32 noundef %28)
  %30 = load i32, ptr @hf_cigi3_articulated_part_control_pitch_enable, align 4
  %.b64 = load i1, ptr @cigi_byte_order, align 4
  %31 = select i1 %.b64, i32 -2147483648, i32 0
  %32 = tail call ptr @proto_tree_add_item(ptr noundef %14, i32 noundef %30, ptr noundef %0, i32 noundef 3, i32 noundef 1, i32 noundef %31)
  %33 = load i32, ptr @hf_cigi3_articulated_part_control_yaw_enable, align 4
  %.b63 = load i1, ptr @cigi_byte_order, align 4
  %34 = select i1 %.b63, i32 -2147483648, i32 0
  %35 = tail call ptr @proto_tree_add_item(ptr noundef %14, i32 noundef %33, ptr noundef %0, i32 noundef 3, i32 noundef 1, i32 noundef %34)
  %36 = load i32, ptr @hf_cigi3_articulated_part_control_xoff, align 4
  %.b62 = load i1, ptr @cigi_byte_order, align 4
  %37 = select i1 %.b62, i32 -2147483648, i32 0
  %38 = tail call ptr @proto_tree_add_item(ptr noundef %2, i32 noundef %36, ptr noundef %0, i32 noundef 4, i32 noundef 4, i32 noundef %37)
  %39 = load i32, ptr @hf_cigi3_articulated_part_control_yoff, align 4
  %.b61 = load i1, ptr @cigi_byte_order, align 4
  %40 = select i1 %.b61, i32 -2147483648, i32 0
  %41 = tail call ptr @proto_tree_add_item(ptr noundef %2, i32 noundef %39, ptr noundef %0, i32 noundef 8, i32 noundef 4, i32 noundef %40)
  %42 = load i32, ptr @hf_cigi3_articulated_part_control_zoff, align 4
  %.b60 = load i1, ptr @cigi_byte_order, align 4
  %43 = select i1 %.b60, i32 -2147483648, i32 0
  %44 = tail call ptr @proto_tree_add_item(ptr noundef %2, i32 noundef %42, ptr noundef %0, i32 noundef 12, i32 noundef 4, i32 noundef %43)
  %45 = load i32, ptr @hf_cigi3_articulated_part_control_roll, align 4
  %.b59 = load i1, ptr @cigi_byte_order, align 4
  %46 = select i1 %.b59, i32 -2147483648, i32 0
  %47 = tail call ptr @proto_tree_add_item(ptr noundef %2, i32 noundef %45, ptr noundef %0, i32 noundef 16, i32 noundef 4, i32 noundef %46)
  %48 = load i32, ptr @hf_cigi3_articulated_part_control_pitch, align 4
  %.b58 = load i1, ptr @cigi_byte_order, align 4
  %49 = select i1 %.b58, i32 -2147483648, i32 0
  %50 = tail call ptr @proto_tree_add_item(ptr noundef %2, i32 noundef %48, ptr noundef %0, i32 noundef 20, i32 noundef 4, i32 noundef %49)
  %51 = load i32, ptr @hf_cigi3_articulated_part_control_yaw, align 4
  %.b = load i1, ptr @cigi_byte_order, align 4
  %52 = select i1 %.b, i32 -2147483648, i32 0
  %53 = tail call ptr @proto_tree_add_item(ptr noundef %2, i32 noundef %51, ptr noundef %0, i32 noundef 24, i32 noundef 4, i32 noundef %52)
  ret i32 28
}